target datalayout = "e-m:e-p270:32:32-p271:32:32-p272:64:64-i64:64-i128:128-f80:128-n8:16:32:64-S128"
target triple = "x86_64-pc-linux-gnu"

%struct._packet_info = type { ptr, ptr, i32, i32, %struct.nstime_t, %struct.nstime_t, %struct.nstime_t, i8, ptr, ptr, ptr, ptr, %struct._address, %struct._address, %struct._address, %struct._address, %struct._address, %struct._address, i32, ptr, i8, [3 x i8], %struct.anon, i32, i32, i32, i32, ptr, i8, ptr, ptr, i16, i16, i32, i32, i16, i32, i32, ptr, ptr, ptr, i8, i8, i16, i16, i16, i32, i16, i16, ptr, ptr, ptr, ptr, ptr, i32, i32 }
%struct.nstime_t = type { i64, i32 }
%struct._address = type { i32, i32, ptr, ptr }
%struct.anon = type { i8, [3 x i8] }

@hf_cba_acco_count = internal global i32 0, align 4
@hf_cba_acco_conn_cons_id = internal global i32 0, align 4
@hf_cba_acco_conn_state = internal global i32 0, align 4
@.str.260 = private unnamed_addr constant [9 x i8] c": Cnt=%u\00", align 1

; Function Attrs: null_pointer_is_valid sspstrong uwtable
define internal i32 @dissect_ICBAAccoMgt_SetActivationState_rqst(ptr noundef %0, i32 noundef %1, ptr noundef %2, ptr noundef %3, ptr noundef %4, ptr noundef %5) #0 {
  %7 = alloca ptr, align 8
  %8 = alloca i32, align 4
  %9 = alloca ptr, align 8
  %10 = alloca ptr, align 8
  %11 = alloca ptr, align 8
  %12 = alloca ptr, align 8
  %13 = alloca i8, align 1
  %14 = alloca i32, align 4
  %15 = alloca i32, align 4
  %16 = alloca i32, align 4
  %17 = alloca i32, align 4
  store ptr %0, ptr %7, align 8
  store i32 %1, ptr %8, align 4
  store ptr %2, ptr %9, align 8
  store ptr %3, ptr %10, align 8
  store ptr %4, ptr %11, align 8
  store ptr %5, ptr %12, align 8
  call void @llvm.lifetime.start.p0(i64 1, ptr %13) #12
  call void @llvm.lifetime.start.p0(i64 4, ptr %14) #12
  call void @llvm.lifetime.start.p0(i64 4, ptr %15) #12
  call void @llvm.lifetime.start.p0(i64 4, ptr %16) #12
  call void @llvm.lifetime.start.p0(i64 4, ptr %17) #12
  %18 = load ptr, ptr %7, align 8
  %19 = load i32, ptr %8, align 4
  %20 = load ptr, ptr %9, align 8
  %21 = load ptr, ptr %10, align 8
  %22 = load ptr, ptr %11, align 8
  %23 = load ptr, ptr %12, align 8
  %24 = call i32 @dissect_dcom_this(ptr noundef %18, i32 noundef %19, ptr noundef %20, ptr noundef %21, ptr noundef %22, ptr noundef %23)
  store i32 %24, ptr %8, align 4
  %25 = load ptr, ptr %7, align 8
  %26 = load i32, ptr %8, align 4
  %27 = load ptr, ptr %9, align 8
  %28 = load ptr, ptr %10, align 8
  %29 = load ptr, ptr %11, align 8
  %30 = load ptr, ptr %12, align 8
  %31 = load i32, ptr @hf_cba_acco_conn_state, align 4
  %32 = call i32 @dissect_ndr_uint8(ptr noundef %25, i32 noundef %26, ptr noundef %27, ptr noundef %28, ptr noundef %29, ptr noundef %30, i32 noundef %31, ptr noundef %13)
  store i32 %32, ptr %8, align 4
  %33 = load ptr, ptr %7, align 8
  %34 = load i32, ptr %8, align 4
  %35 = load ptr, ptr %9, align 8
  %36 = load ptr, ptr %10, align 8
  %37 = load ptr, ptr %11, align 8
  %38 = load ptr, ptr %12, align 8
  %39 = load i32, ptr @hf_cba_acco_count, align 4
  %40 = call i32 @dissect_ndr_uint32(ptr noundef %33, i32 noundef %34, ptr noundef %35, ptr noundef %36, ptr noundef %37, ptr noundef %38, i32 noundef %39, ptr noundef %14)
  store i32 %40, ptr %8, align 4
  %41 = load ptr, ptr %7, align 8
  %42 = load i32, ptr %8, align 4
  %43 = load ptr, ptr %9, align 8
  %44 = load ptr, ptr %10, align 8
  %45 = load ptr, ptr %11, align 8
  %46 = load ptr, ptr %12, align 8
  %47 = call i32 @dissect_dcom_dcerpc_array_size(ptr noundef %41, i32 noundef %42, ptr noundef %43, ptr noundef %44, ptr noundef %45, ptr noundef %46, ptr noundef %15)
  store i32 %47, ptr %8, align 4
  store i32 1, ptr %16, align 4
  br label %48

48:                                               ; preds = %52, %6
  %49 = load i32, ptr %15, align 4
  %50 = add i32 %49, -1
  store i32 %50, ptr %15, align 4
  %51 = icmp ne i32 %49, 0
  br i1 %51, label %52, label %64

52:                                               ; preds = %48
  %53 = load ptr, ptr %7, align 8
  %54 = load i32, ptr %8, align 4
  %55 = load ptr, ptr %9, align 8
  %56 = load ptr, ptr %10, align 8
  %57 = load ptr, ptr %11, align 8
  %58 = load ptr, ptr %12, align 8
  %59 = load i32, ptr @hf_cba_acco_conn_cons_id, align 4
  %60 = load i32, ptr %16, align 4
  %61 = call i32 @dissect_dcom_indexed_DWORD(ptr noundef %53, i32 noundef %54, ptr noundef %55, ptr noundef %56, ptr noundef %57, ptr noundef %58, i32 noundef %59, ptr noundef %17, i32 noundef %60)
  store i32 %61, ptr %8, align 4
  %62 = load i32, ptr %16, align 4
  %63 = add i32 %62, 1
  store i32 %63, ptr %16, align 4
  br label %48, !llvm.loop !15

64:                                               ; preds = %48
  %65 = load ptr, ptr %9, align 8
  %66 = getelementptr inbounds nuw %struct._packet_info, ptr %65, i32 0, i32 1
  %67 = load ptr, ptr %66, align 8
  %68 = load i32, ptr %14, align 4
  call void (ptr, i32, ptr, ...) @col_append_fstr(ptr noundef %67, i32 noundef 25, ptr noundef @.str.260, i32 noundef %68)
  %69 = load i32, ptr %8, align 4
  call void @llvm.lifetime.end.p0(i64 4, ptr %17) #12
  call void @llvm.lifetime.end.p0(i64 4, ptr %16) #12
  call void @llvm.lifetime.end.p0(i64 4, ptr %15) #12
  call void @llvm.lifetime.end.p0(i64 4, ptr %14) #12
  call void @llvm.lifetime.end.p0(i64 1, ptr %13) #12
  ret i32 %69
}