; Function Attrs: null_pointer_is_valid sspstrong uwtable
define internal i32 @dissect_ICBAAccoMgt_SetActivationState_rqst(ptr noundef %0, i32 noundef %1, ptr noundef %2, ptr noundef %3, ptr noundef %4, ptr noundef %5) #0 {
  %7 = alloca i8, align 1
  %8 = alloca i32, align 4
  %9 = alloca i32, align 4
  %10 = alloca i32, align 4
  call void @llvm.lifetime.start.p0(i64 1, ptr nonnull %7) #12
  call void @llvm.lifetime.start.p0(i64 4, ptr nonnull %8) #12
  call void @llvm.lifetime.start.p0(i64 4, ptr nonnull %9) #12
  call void @llvm.lifetime.start.p0(i64 4, ptr nonnull %10) #12
  %11 = tail call i32 @dissect_dcom_this(ptr noundef %0, i32 noundef %1, ptr noundef %2, ptr noundef %3, ptr noundef %4, ptr noundef %5)
  %12 = load i32, ptr @hf_cba_acco_conn_state, align 4
  %13 = call i32 @dissect_ndr_uint8(ptr noundef %0, i32 noundef %11, ptr noundef %2, ptr noundef %3, ptr noundef %4, ptr noundef %5, i32 noundef %12, ptr noundef nonnull %7)
  %14 = load i32, ptr @hf_cba_acco_count, align 4
  %15 = call i32 @dissect_ndr_uint32(ptr noundef %0, i32 noundef %13, ptr noundef %2, ptr noundef %3, ptr noundef %4, ptr noundef %5, i32 noundef %14, ptr noundef nonnull %8)
  %16 = call i32 @dissect_dcom_dcerpc_array_size(ptr noundef %0, i32 noundef %15, ptr noundef %2, ptr noundef %3, ptr noundef %4, ptr noundef %5, ptr noundef nonnull %9)
  %17 = load i32, ptr %9, align 4
  %18 = add i32 %17, -1
  store i32 %18, ptr %9, align 4
  %.not34 = icmp eq i32 %17, 0
  br i1 %.not34, label %._crit_edge, label %.lr.ph

.lr.ph:                                           ; preds = %6, %.lr.ph
  %.036 = phi i32 [ %21, %.lr.ph ], [ 1, %6 ]
  %.03335 = phi i32 [ %20, %.lr.ph ], [ %16, %6 ]
  %19 = load i32, ptr @hf_cba_acco_conn_cons_id, align 4
  %20 = call i32 @dissect_dcom_indexed_DWORD(ptr noundef %0, i32 noundef %.03335, ptr noundef %2, ptr noundef %3, ptr noundef %4, ptr noundef %5, i32 noundef %19, ptr noundef nonnull %10, i32 noundef %.036)
  %21 = add i32 %.036, 1
  %22 = load i32, ptr %9, align 4
  %23 = add i32 %22, -1
  store i32 %23, ptr %9, align 4
  %.not = icmp eq i32 %22, 0
  br i1 %.not, label %._crit_edge, label %.lr.ph, !llvm.loop !16

._crit_edge:                                      ; preds = %.lr.ph, %6
  %.033.lcssa = phi i32 [ %16, %6 ], [ %20, %.lr.ph ]
  %24 = getelementptr inbounds nuw i8, ptr %2, i64 8
  %25 = load ptr, ptr %24, align 8
  %26 = load i32, ptr %8, align 4
  call void (ptr, i32, ptr, ...) @col_append_fstr(ptr noundef %25, i32 noundef 25, ptr noundef nonnull @.str.260, i32 noundef %26)
  call void @llvm.lifetime.end.p0(i64 4, ptr nonnull %10) #12
  call void @llvm.lifetime.end.p0(i64 4, ptr nonnull %9) #12
  call void @llvm.lifetime.end.p0(i64 4, ptr nonnull %8) #12
  call void @llvm.lifetime.end.p0(i64 1, ptr nonnull %7) #12
  ret i32 %.033.lcssa
}